; Function Attrs: mustprogress uwtable
define dso_local void @_ZN48NonsecureURBGBase_SeedSeqConstructorIsValid_Test8TestBodyEv(ptr nonnull readnone align 8 captures(none) %0) unnamed_addr #4 align 2 personality ptr @__gxx_personality_v0 {
  %2 = alloca %"class.std::seed_seq", align 8
  %3 = alloca %"class.absl::random_internal::NonsecureURBGBase", align 8
  call void @llvm.lifetime.start.p0(i64 24, ptr nonnull %2) #20
  call void @llvm.memset.p0.i64(ptr noundef nonnull align 8 dereferenceable(24) %2, i8 0, i64 24, i1 false)
  call void @llvm.lifetime.start.p0(i64 5000, ptr nonnull %3) #20
  invoke void @_ZN4absl15random_internal17NonsecureURBGBaseISt23mersenne_twister_engineImLm32ELm624ELm397ELm31ELm2567483615ELm11ELm4294967295ELm7ELm2636928640ELm15ELm4022730752ELm18ELm1812433253EENS0_17RandenPoolSeedSeqEE13ConstructURBGIRSt8seed_seqEES3_OT_(ptr dead_on_unwind nonnull writable sret(%"class.std::mersenne_twister_engine") align 8 dereferenceable(5000) %3, ptr noundef nonnull align 8 dereferenceable(24) %2)
          to label %_ZN4absl15random_internal17NonsecureURBGBaseISt23mersenne_twister_engineImLm32ELm624ELm397ELm31ELm2567483615ELm11ELm4294967295ELm7ELm2636928640ELm15ELm4022730752ELm18ELm1812433253EENS0_17RandenPoolSeedSeqEEC2IRSt8seed_seqvEEOT_.exit unwind label %11

_ZN4absl15random_internal17NonsecureURBGBaseISt23mersenne_twister_engineImLm32ELm624ELm397ELm31ELm2567483615ELm11ELm4294967295ELm7ELm2636928640ELm15ELm4022730752ELm18ELm1812433253EENS0_17RandenPoolSeedSeqEEC2IRSt8seed_seqvEEOT_.exit: ; preds = %1
  call void @llvm.lifetime.end.p0(i64 5000, ptr nonnull %3) #20
  %4 = load ptr, ptr %2, align 8, !tbaa !61
  %.not.i.i.i.i = icmp eq ptr %4, null
  br i1 %.not.i.i.i.i, label %_ZNSt8seed_seqD2Ev.exit, label %5

5:                                                ; preds = %_ZN4absl15random_internal17NonsecureURBGBaseISt23mersenne_twister_engineImLm32ELm624ELm397ELm31ELm2567483615ELm11ELm4294967295ELm7ELm2636928640ELm15ELm4022730752ELm18ELm1812433253EENS0_17RandenPoolSeedSeqEEC2IRSt8seed_seqvEEOT_.exit
  %6 = getelementptr inbounds nuw i8, ptr %2, i64 16
  %7 = load ptr, ptr %6, align 8, !tbaa !64
  %8 = ptrtoint ptr %7 to i64
  %9 = ptrtoint ptr %4 to i64
  %10 = sub i64 %8, %9
  call void @_ZdlPvm(ptr noundef nonnull %4, i64 noundef %10) #21
  br label %_ZNSt8seed_seqD2Ev.exit

_ZNSt8seed_seqD2Ev.exit:                          ; preds = %_ZN4absl15random_internal17NonsecureURBGBaseISt23mersenne_twister_engineImLm32ELm624ELm397ELm31ELm2567483615ELm11ELm4294967295ELm7ELm2636928640ELm15ELm4022730752ELm18ELm1812433253EENS0_17RandenPoolSeedSeqEEC2IRSt8seed_seqvEEOT_.exit, %5
  call void @llvm.lifetime.end.p0(i64 24, ptr nonnull %2) #20
  ret void

11:                                               ; preds = %1
  %12 = landingpad { ptr, i32 }
          cleanup
  call void @llvm.lifetime.end.p0(i64 5000, ptr nonnull %3) #20
  %13 = load ptr, ptr %2, align 8, !tbaa !61
  %.not.i.i.i.i1 = icmp eq ptr %13, null
  br i1 %.not.i.i.i.i1, label %_ZNSt8seed_seqD2Ev.exit2, label %14

14:                                               ; preds = %11
  %15 = getelementptr inbounds nuw i8, ptr %2, i64 16
  %16 = load ptr, ptr %15, align 8, !tbaa !64
  %17 = ptrtoint ptr %16 to i64
  %18 = ptrtoint ptr %13 to i64
  %19 = sub i64 %17, %18
  call void @_ZdlPvm(ptr noundef nonnull %13, i64 noundef %19) #21
  br label %_ZNSt8seed_seqD2Ev.exit2

_ZNSt8seed_seqD2Ev.exit2:                         ; preds = %11, %14
  call void @llvm.lifetime.end.p0(i64 24, ptr nonnull %2) #20
  resume { ptr, i32 } %12
}